target datalayout = "e-m:e-p270:32:32-p271:32:32-p272:64:64-i64:64-i128:128-f80:128-n8:16:32:64-S128"
target triple = "x86_64-pc-linux-gnu"

%class.File = type { ptr, i64, i8, i32, i8, i8, i32, i8, i8, i8, i8, i8, i64, i8, [2048 x i32], i32, ptr }

; Function Attrs: mustprogress nounwind uwtable
define linkonce_odr noundef i32 @_ZN4File5GetFDEv(ptr noundef nonnull align 8 dereferenceable(8256) %0) #0 comdat align 2 {
  %2 = alloca ptr, align 8
  store ptr %0, ptr %2, align 8
  %3 = load ptr, ptr %2, align 8
  %4 = getelementptr inbounds %class.File, ptr %3, i32 0, i32 1
  %5 = load i64, ptr %4, align 8
  %6 = trunc i64 %5 to i32
  ret i32 %6
}

; Function Attrs: mustprogress uwtable
define noundef zeroext i1 @_ZN4File8IsDeviceEv(ptr noundef nonnull align 8 dereferenceable(8256) %0) #1 align 2 {
  %2 = alloca i1, align 1
  %3 = alloca ptr, align 8
  store ptr %0, ptr %3, align 8
  %4 = load ptr, ptr %3, align 8
  %5 = getelementptr inbounds %class.File, ptr %4, i32 0, i32 1
  %6 = load i64, ptr %5, align 8
  %7 = icmp eq i64 %6, -1
  br i1 %7, label %8, label %9

8:                                                ; preds = %1
  store i1 false, ptr %2, align 1
  br label %13

9:                                                ; preds = %1
  %10 = call noundef i32 @_ZN4File5GetFDEv(ptr noundef nonnull align 8 dereferenceable(8256) %4)
  %11 = call i32 @isatty(i32 noundef %10) #10
  %12 = icmp ne i32 %11, 0
  store i1 %12, ptr %2, align 1
  br label %13

13:                                               ; preds = %9, %8
  %14 = load i1, ptr %2, align 1
  ret i1 %14
}