; Function Attrs: mustprogress nounwind uwtable
define noundef zeroext i1 @_ZN4File8IsDeviceEv(ptr nocapture noundef nonnull readonly align 8 dereferenceable(8256) %0) local_unnamed_addr #1 align 2 {
  %2 = getelementptr inbounds i8, ptr %0, i64 8
  %3 = load i64, ptr %2, align 8
  %4 = icmp eq i64 %3, -1
  br i1 %4, label %9, label %5

5:                                                ; preds = %1
  %6 = trunc i64 %3 to i32
  %7 = tail call i32 @isatty(i32 noundef %6) #18
  %8 = icmp ne i32 %7, 0
  br label %9

9:                                                ; preds = %1, %5
  %.0 = phi i1 [ %8, %5 ], [ false, %1 ]
  ret i1 %.0
}